; Function Attrs: mustprogress nofree norecurse nosync nounwind willreturn memory(read, inaccessiblemem: none) uwtable
define dso_local noundef nonnull align 8 dereferenceable(32) ptr @_ZN4Json6Reader12currentValueEv(ptr nocapture noundef nonnull readonly align 8 dereferenceable(267) %0) local_unnamed_addr #10 align 2 {
  %2 = getelementptr inbounds i8, ptr %0, i64 48
  %3 = load ptr, ptr %2, align 8, !noalias !30
  %4 = getelementptr inbounds i8, ptr %0, i64 56
  %5 = load ptr, ptr %4, align 8, !noalias !30
  %6 = icmp eq ptr %3, %5
  br i1 %6, label %7, label %_ZNSt5stackIPN4Json5ValueESt5dequeIS2_SaIS2_EEE3topEv.exit

7:                                                ; preds = %1
  %8 = getelementptr inbounds i8, ptr %0, i64 72
  %9 = load ptr, ptr %8, align 8, !noalias !30
  %10 = getelementptr inbounds i8, ptr %9, i64 -8
  %11 = load ptr, ptr %10, align 8
  %12 = getelementptr inbounds i8, ptr %11, i64 512
  br label %_ZNSt5stackIPN4Json5ValueESt5dequeIS2_SaIS2_EEE3topEv.exit

_ZNSt5stackIPN4Json5ValueESt5dequeIS2_SaIS2_EEE3topEv.exit: ; preds = %1, %7
  %13 = phi ptr [ %12, %7 ], [ %3, %1 ]
  %14 = getelementptr inbounds i8, ptr %13, i64 -8
  %15 = load ptr, ptr %14, align 8
  ret ptr %15
}